target datalayout = "e-m:e-p270:32:32-p271:32:32-p272:64:64-i64:64-i128:128-f80:128-n8:16:32:64-S128"
target triple = "x86_64-unknown-linux-gnu"

%"class.QuantLib::Settings" = type <{ %"class.QuantLib::Settings::DateProxy", i8, %"class.boost::optional", i8, [4 x i8] }>
%"class.QuantLib::Settings::DateProxy" = type { %"class.QuantLib::ObservableValue" }
%"class.QuantLib::ObservableValue" = type { %"class.QuantLib::Date", %"class.boost::shared_ptr" }
%"class.QuantLib::Date" = type { i64 }
%"class.boost::shared_ptr" = type { ptr, %"class.boost::detail::shared_count" }
%"class.boost::detail::shared_count" = type { ptr }
%"class.boost::optional" = type { %"class.boost::optional_detail::tc_optional_base" }
%"class.boost::optional_detail::tc_optional_base" = type { i8, i8 }

@__dso_handle = external hidden global i8
@_ZZN8QuantLib9SingletonINS_8SettingsESt17integral_constantIbLb0EEE8instanceEvE8instance = linkonce_odr global %"class.QuantLib::Settings" zeroinitializer, comdat, align 8
@_ZGVZN8QuantLib9SingletonINS_8SettingsESt17integral_constantIbLb0EEE8instanceEvE8instance = linkonce_odr global i64 0, comdat, align 8

; Function Attrs: mustprogress nounwind uwtable
define linkonce_odr noundef nonnull align 8 dereferenceable(8) ptr @_ZNK8QuantLib15ObservableValueINS_4DateEE5valueEv(ptr noundef nonnull align 8 dereferenceable(24) %this) #4 comdat align 2 {
entry:
  %this.addr = alloca ptr, align 8
  store ptr %this, ptr %this.addr, align 8, !tbaa !3
  %this1 = load ptr, ptr %this.addr, align 8
  %value_ = getelementptr inbounds nuw %"class.QuantLib::ObservableValue", ptr %this1, i32 0, i32 0
  ret ptr %value_
}

; Function Attrs: inlinehint mustprogress nounwind uwtable
define linkonce_odr noundef i64 @_ZNK8QuantLib4Date12serialNumberEv(ptr noundef nonnull align 8 dereferenceable(8) %this) #9 comdat align 2 {
entry:
  %this.addr = alloca ptr, align 8
  store ptr %this, ptr %this.addr, align 8, !tbaa !3
  %this1 = load ptr, ptr %this.addr, align 8
  %serialNumber_ = getelementptr inbounds nuw %"class.QuantLib::Date", ptr %this1, i32 0, i32 0
  %0 = load i64, ptr %serialNumber_, align 8, !tbaa !27
  ret i64 %0
}

; Function Attrs: inlinehint mustprogress nounwind uwtable
define linkonce_odr noundef zeroext i1 @_ZN8QuantLibleERKNS_4DateES2_(ptr noundef nonnull align 8 dereferenceable(8) %d1, ptr noundef nonnull align 8 dereferenceable(8) %d2) #9 comdat {
entry:
  %d1.addr = alloca ptr, align 8
  %d2.addr = alloca ptr, align 8
  store ptr %d1, ptr %d1.addr, align 8, !tbaa !3
  store ptr %d2, ptr %d2.addr, align 8, !tbaa !3
  %0 = load ptr, ptr %d1.addr, align 8, !tbaa !3
  %call = call noundef i64 @_ZNK8QuantLib4Date12serialNumberEv(ptr noundef nonnull align 8 dereferenceable(8) %0)
  %1 = load ptr, ptr %d2.addr, align 8, !tbaa !3
  %call1 = call noundef i64 @_ZNK8QuantLib4Date12serialNumberEv(ptr noundef nonnull align 8 dereferenceable(8) %1)
  %cmp = icmp sle i64 %call, %call1
  ret i1 %cmp
}

; Function Attrs: inlinehint mustprogress uwtable
define linkonce_odr i64 @_ZNK8QuantLib8Settings9DateProxycvNS_4DateEEv(ptr noundef nonnull align 8 dereferenceable(24) %this) #5 comdat align 2 {
entry:
  %retval = alloca %"class.QuantLib::Date", align 8
  %this.addr = alloca ptr, align 8
  %ref.tmp = alloca %"class.QuantLib::Date", align 8
  store ptr %this, ptr %this.addr, align 8, !tbaa !3
  %this1 = load ptr, ptr %this.addr, align 8
  %call = call noundef nonnull align 8 dereferenceable(8) ptr @_ZNK8QuantLib15ObservableValueINS_4DateEE5valueEv(ptr noundef nonnull align 8 dereferenceable(24) %this1)
  call void @llvm.lifetime.start.p0(i64 8, ptr %ref.tmp) #13
  call void @_ZN8QuantLib4DateC1Ev(ptr noundef nonnull align 8 dereferenceable(8) %ref.tmp)
  %call2 = call noundef zeroext i1 @_ZN8QuantLibeqERKNS_4DateES2_(ptr noundef nonnull align 8 dereferenceable(8) %call, ptr noundef nonnull align 8 dereferenceable(8) %ref.tmp)
  call void @llvm.lifetime.end.p0(i64 8, ptr %ref.tmp) #13
  br i1 %call2, label %if.then, label %if.else

if.then:                                          ; preds = %entry
  %call3 = call i64 @_ZN8QuantLib4Date10todaysDateEv()
  %coerce.dive = getelementptr inbounds nuw %"class.QuantLib::Date", ptr %retval, i32 0, i32 0
  store i64 %call3, ptr %coerce.dive, align 8
  br label %return

if.else:                                          ; preds = %entry
  %call4 = call noundef nonnull align 8 dereferenceable(8) ptr @_ZNK8QuantLib15ObservableValueINS_4DateEE5valueEv(ptr noundef nonnull align 8 dereferenceable(24) %this1)
  call void @llvm.memcpy.p0.p0.i64(ptr align 8 %retval, ptr align 8 %call4, i64 8, i1 false), !tbaa.struct !20
  br label %return

return:                                           ; preds = %if.else, %if.then
  %coerce.dive5 = getelementptr inbounds nuw %"class.QuantLib::Date", ptr %retval, i32 0, i32 0
  %0 = load i64, ptr %coerce.dive5, align 8
  ret i64 %0
}

; Function Attrs: inlinehint mustprogress nounwind uwtable
define linkonce_odr noundef nonnull align 8 dereferenceable(24) ptr @_ZN8QuantLib8Settings14evaluationDateEv(ptr noundef nonnull align 8 dereferenceable(28) %this) #9 comdat align 2 {
entry:
  %this.addr = alloca ptr, align 8
  store ptr %this, ptr %this.addr, align 8, !tbaa !3
  %this1 = load ptr, ptr %this.addr, align 8
  %evaluationDate_ = getelementptr inbounds nuw %"class.QuantLib::Settings", ptr %this1, i32 0, i32 0
  ret ptr %evaluationDate_
}

; Function Attrs: mustprogress uwtable
define linkonce_odr noundef nonnull align 8 dereferenceable(28) ptr @_ZN8QuantLib9SingletonINS_8SettingsESt17integral_constantIbLb0EEE8instanceEv() #8 comdat align 2 personality ptr @__gxx_personality_v0 {
entry:
  %exn.slot = alloca ptr, align 8
  %ehselector.slot = alloca i32, align 4
  %0 = load atomic i8, ptr @_ZGVZN8QuantLib9SingletonINS_8SettingsESt17integral_constantIbLb0EEE8instanceEvE8instance acquire, align 8
  %guard.uninitialized = icmp eq i8 %0, 0
  br i1 %guard.uninitialized, label %init.check, label %init.end, !prof !19

init.check:                                       ; preds = %entry
  %1 = call i32 @__cxa_guard_acquire(ptr @_ZGVZN8QuantLib9SingletonINS_8SettingsESt17integral_constantIbLb0EEE8instanceEvE8instance) #13
  %tobool = icmp ne i32 %1, 0
  br i1 %tobool, label %init, label %init.end

init:                                             ; preds = %init.check
  invoke void @_ZN8QuantLib8SettingsC1Ev(ptr noundef nonnull align 8 dereferenceable(28) @_ZZN8QuantLib9SingletonINS_8SettingsESt17integral_constantIbLb0EEE8instanceEvE8instance)
          to label %invoke.cont unwind label %lpad

invoke.cont:                                      ; preds = %init
  %2 = call i32 @__cxa_atexit(ptr @_ZN8QuantLib8SettingsD2Ev, ptr @_ZZN8QuantLib9SingletonINS_8SettingsESt17integral_constantIbLb0EEE8instanceEvE8instance, ptr @__dso_handle) #13
  call void @__cxa_guard_release(ptr @_ZGVZN8QuantLib9SingletonINS_8SettingsESt17integral_constantIbLb0EEE8instanceEvE8instance) #13
  br label %init.end

init.end:                                         ; preds = %invoke.cont, %init.check, %entry
  ret ptr @_ZZN8QuantLib9SingletonINS_8SettingsESt17integral_constantIbLb0EEE8instanceEvE8instance

lpad:                                             ; preds = %init
  %3 = landingpad { ptr, i32 }
          cleanup
  %4 = extractvalue { ptr, i32 } %3, 0
  store ptr %4, ptr %exn.slot, align 8
  %5 = extractvalue { ptr, i32 } %3, 1
  store i32 %5, ptr %ehselector.slot, align 4
  call void @__cxa_guard_abort(ptr @_ZGVZN8QuantLib9SingletonINS_8SettingsESt17integral_constantIbLb0EEE8instanceEvE8instance) #13
  br label %eh.resume

eh.resume:                                        ; preds = %lpad
  %exn = load ptr, ptr %exn.slot, align 8
  %sel = load i32, ptr %ehselector.slot, align 4
  %lpad.val = insertvalue { ptr, i32 } poison, ptr %exn, 0
  %lpad.val1 = insertvalue { ptr, i32 } %lpad.val, i32 %sel, 1
  resume { ptr, i32 } %lpad.val1
}

; Function Attrs: inlinehint mustprogress uwtable
define linkonce_odr noundef zeroext i1 @_ZN8QuantLibneERKNS_4DateES2_(ptr noundef nonnull align 8 dereferenceable(8) %d1, ptr noundef nonnull align 8 dereferenceable(8) %d2) #5 comdat {
entry:
  %d1.addr = alloca ptr, align 8
  %d2.addr = alloca ptr, align 8
  store ptr %d1, ptr %d1.addr, align 8, !tbaa !3
  store ptr %d2, ptr %d2.addr, align 8, !tbaa !3
  %0 = load ptr, ptr %d1.addr, align 8, !tbaa !3
  %call = call noundef i64 @_ZNK8QuantLib4Date12serialNumberEv(ptr noundef nonnull align 8 dereferenceable(8) %0)
  %1 = load ptr, ptr %d2.addr, align 8, !tbaa !3
  %call1 = call noundef i64 @_ZNK8QuantLib4Date12serialNumberEv(ptr noundef nonnull align 8 dereferenceable(8) %1)
  %cmp = icmp ne i64 %call, %call1
  ret i1 %cmp
}

; Function Attrs: inlinehint mustprogress nounwind uwtable
define linkonce_odr noundef zeroext i1 @_ZN8QuantLibeqERKNS_4DateES2_(ptr noundef nonnull align 8 dereferenceable(8) %d1, ptr noundef nonnull align 8 dereferenceable(8) %d2) #9 comdat {
entry:
  %d1.addr = alloca ptr, align 8
  %d2.addr = alloca ptr, align 8
  store ptr %d1, ptr %d1.addr, align 8, !tbaa !3
  store ptr %d2, ptr %d2.addr, align 8, !tbaa !3
  %0 = load ptr, ptr %d1.addr, align 8, !tbaa !3
  %call = call noundef i64 @_ZNK8QuantLib4Date12serialNumberEv(ptr noundef nonnull align 8 dereferenceable(8) %0)
  %1 = load ptr, ptr %d2.addr, align 8, !tbaa !3
  %call1 = call noundef i64 @_ZNK8QuantLib4Date12serialNumberEv(ptr noundef nonnull align 8 dereferenceable(8) %1)
  %cmp = icmp eq i64 %call, %call1
  ret i1 %cmp
}

; Function Attrs: mustprogress uwtable
define noundef zeroext i1 @_ZNK8QuantLib8CashFlow15tradingExCouponERKNS_4DateE(ptr noundef nonnull align 8 dereferenceable(20) %this, ptr noundef nonnull align 8 dereferenceable(8) %refDate) #8 align 2 {
entry:
  %retval = alloca i1, align 1
  %this.addr = alloca ptr, align 8
  %refDate.addr = alloca ptr, align 8
  %ecd = alloca %"class.QuantLib::Date", align 8
  %ref.tmp = alloca %"class.QuantLib::Date", align 8
  %cleanup.dest.slot = alloca i32, align 4
  %ref = alloca %"class.QuantLib::Date", align 8
  %ref.tmp3 = alloca %"class.QuantLib::Date", align 8
  store ptr %this, ptr %this.addr, align 8, !tbaa !3
  store ptr %refDate, ptr %refDate.addr, align 8, !tbaa !3
  %this1 = load ptr, ptr %this.addr, align 8
  call void @llvm.lifetime.start.p0(i64 8, ptr %ecd) #13
  %vtable = load ptr, ptr %this1, align 8, !tbaa !15
  %vfn = getelementptr inbounds ptr, ptr %vtable, i64 7
  %0 = load ptr, ptr %vfn, align 8
  %call = call i64 %0(ptr noundef nonnull align 8 dereferenceable(20) %this1)
  %coerce.dive = getelementptr inbounds nuw %"class.QuantLib::Date", ptr %ecd, i32 0, i32 0
  store i64 %call, ptr %coerce.dive, align 8
  call void @llvm.lifetime.start.p0(i64 8, ptr %ref.tmp) #13
  call void @_ZN8QuantLib4DateC1Ev(ptr noundef nonnull align 8 dereferenceable(8) %ref.tmp)
  %call2 = call noundef zeroext i1 @_ZN8QuantLibeqERKNS_4DateES2_(ptr noundef nonnull align 8 dereferenceable(8) %ecd, ptr noundef nonnull align 8 dereferenceable(8) %ref.tmp)
  call void @llvm.lifetime.end.p0(i64 8, ptr %ref.tmp) #13
  br i1 %call2, label %if.then, label %if.end

if.then:                                          ; preds = %entry
  store i1 false, ptr %retval, align 1
  store i32 1, ptr %cleanup.dest.slot, align 4
  br label %cleanup

if.end:                                           ; preds = %entry
  call void @llvm.lifetime.start.p0(i64 8, ptr %ref) #13
  %1 = load ptr, ptr %refDate.addr, align 8, !tbaa !3
  call void @llvm.lifetime.start.p0(i64 8, ptr %ref.tmp3) #13
  call void @_ZN8QuantLib4DateC1Ev(ptr noundef nonnull align 8 dereferenceable(8) %ref.tmp3)
  %call4 = call noundef zeroext i1 @_ZN8QuantLibneERKNS_4DateES2_(ptr noundef nonnull align 8 dereferenceable(8) %1, ptr noundef nonnull align 8 dereferenceable(8) %ref.tmp3)
  br i1 %call4, label %cond.true, label %cond.false

cond.true:                                        ; preds = %if.end
  %2 = load ptr, ptr %refDate.addr, align 8, !tbaa !3
  call void @llvm.memcpy.p0.p0.i64(ptr align 8 %ref, ptr align 8 %2, i64 8, i1 false), !tbaa.struct !20
  br label %cond.end

cond.false:                                       ; preds = %if.end
  %call5 = call noundef nonnull align 8 dereferenceable(28) ptr @_ZN8QuantLib9SingletonINS_8SettingsESt17integral_constantIbLb0EEE8instanceEv()
  %call6 = call noundef nonnull align 8 dereferenceable(24) ptr @_ZN8QuantLib8Settings14evaluationDateEv(ptr noundef nonnull align 8 dereferenceable(28) %call5)
  %call7 = call i64 @_ZNK8QuantLib8Settings9DateProxycvNS_4DateEEv(ptr noundef nonnull align 8 dereferenceable(24) %call6)
  %coerce.dive8 = getelementptr inbounds nuw %"class.QuantLib::Date", ptr %ref, i32 0, i32 0
  store i64 %call7, ptr %coerce.dive8, align 8
  br label %cond.end

cond.end:                                         ; preds = %cond.false, %cond.true
  call void @llvm.lifetime.end.p0(i64 8, ptr %ref.tmp3) #13
  %call9 = call noundef zeroext i1 @_ZN8QuantLibleERKNS_4DateES2_(ptr noundef nonnull align 8 dereferenceable(8) %ecd, ptr noundef nonnull align 8 dereferenceable(8) %ref)
  store i1 %call9, ptr %retval, align 1
  store i32 1, ptr %cleanup.dest.slot, align 4
  call void @llvm.lifetime.end.p0(i64 8, ptr %ref) #13
  br label %cleanup

cleanup:                                          ; preds = %cond.end, %if.then
  call void @llvm.lifetime.end.p0(i64 8, ptr %ecd) #13
  %3 = load i1, ptr %retval, align 1
  ret i1 %3
}