; Function Attrs: mustprogress uwtable
define noundef zeroext i1 @_ZNK8QuantLib8CashFlow15tradingExCouponERKNS_4DateE(ptr noundef nonnull align 8 dereferenceable(20) %this, ptr nocapture noundef nonnull readonly align 8 dereferenceable(8) %refDate) local_unnamed_addr #7 align 2 personality ptr @__gxx_personality_v0 {
entry:
  %ref.tmp.i = alloca %"class.QuantLib::Date", align 8
  %ref.tmp = alloca %"class.QuantLib::Date", align 8
  %ref.tmp3 = alloca %"class.QuantLib::Date", align 8
  %vtable = load ptr, ptr %this, align 8, !tbaa !13
  %vfn = getelementptr inbounds i8, ptr %vtable, i64 56
  %0 = load ptr, ptr %vfn, align 8
  %call = tail call i64 %0(ptr noundef nonnull align 8 dereferenceable(20) %this)
  call void @llvm.lifetime.start.p0(i64 8, ptr nonnull %ref.tmp) #14
  call void @_ZN8QuantLib4DateC1Ev(ptr noundef nonnull align 8 dereferenceable(8) %ref.tmp)
  %1 = load i64, ptr %ref.tmp, align 8, !tbaa !15
  %cmp.i = icmp eq i64 %call, %1
  call void @llvm.lifetime.end.p0(i64 8, ptr nonnull %ref.tmp) #14
  br i1 %cmp.i, label %cleanup, label %if.end

if.end:                                           ; preds = %entry
  call void @llvm.lifetime.start.p0(i64 8, ptr nonnull %ref.tmp3) #14
  call void @_ZN8QuantLib4DateC1Ev(ptr noundef nonnull align 8 dereferenceable(8) %ref.tmp3)
  %2 = load i64, ptr %refDate, align 8, !tbaa !19
  %3 = load i64, ptr %ref.tmp3, align 8, !tbaa !15
  %cmp.i2.not = icmp eq i64 %2, %3
  br i1 %cmp.i2.not, label %cond.false, label %cond.end

cond.false:                                       ; preds = %if.end
  %4 = load atomic i8, ptr @_ZGVZN8QuantLib9SingletonINS_8SettingsESt17integral_constantIbLb0EEE8instanceEvE8instance acquire, align 8
  %guard.uninitialized.i = icmp eq i8 %4, 0
  br i1 %guard.uninitialized.i, label %init.check.i, label %_ZN8QuantLib9SingletonINS_8SettingsESt17integral_constantIbLb0EEE8instanceEv.exit, !prof !18

init.check.i:                                     ; preds = %cond.false
  %5 = call i32 @__cxa_guard_acquire(ptr nonnull @_ZGVZN8QuantLib9SingletonINS_8SettingsESt17integral_constantIbLb0EEE8instanceEvE8instance) #14
  %tobool.not.i = icmp eq i32 %5, 0
  br i1 %tobool.not.i, label %_ZN8QuantLib9SingletonINS_8SettingsESt17integral_constantIbLb0EEE8instanceEv.exit, label %init.i

init.i:                                           ; preds = %init.check.i
  invoke void @_ZN8QuantLib8SettingsC1Ev(ptr noundef nonnull align 8 dereferenceable(28) @_ZZN8QuantLib9SingletonINS_8SettingsESt17integral_constantIbLb0EEE8instanceEvE8instance)
          to label %invoke.cont.i unwind label %lpad.i

invoke.cont.i:                                    ; preds = %init.i
  %6 = call i32 @__cxa_atexit(ptr nonnull @_ZN8QuantLib8SettingsD2Ev, ptr nonnull @_ZZN8QuantLib9SingletonINS_8SettingsESt17integral_constantIbLb0EEE8instanceEvE8instance, ptr nonnull @__dso_handle) #14
  call void @__cxa_guard_release(ptr nonnull @_ZGVZN8QuantLib9SingletonINS_8SettingsESt17integral_constantIbLb0EEE8instanceEvE8instance) #14
  br label %_ZN8QuantLib9SingletonINS_8SettingsESt17integral_constantIbLb0EEE8instanceEv.exit

lpad.i:                                           ; preds = %init.i
  %7 = landingpad { ptr, i32 }
          cleanup
  call void @__cxa_guard_abort(ptr nonnull @_ZGVZN8QuantLib9SingletonINS_8SettingsESt17integral_constantIbLb0EEE8instanceEvE8instance) #14
  resume { ptr, i32 } %7

_ZN8QuantLib9SingletonINS_8SettingsESt17integral_constantIbLb0EEE8instanceEv.exit: ; preds = %cond.false, %init.check.i, %invoke.cont.i
  call void @llvm.lifetime.start.p0(i64 8, ptr nonnull %ref.tmp.i) #14
  call void @_ZN8QuantLib4DateC1Ev(ptr noundef nonnull align 8 dereferenceable(8) %ref.tmp.i)
  %8 = load i64, ptr @_ZZN8QuantLib9SingletonINS_8SettingsESt17integral_constantIbLb0EEE8instanceEvE8instance, align 8, !tbaa !19
  %9 = load i64, ptr %ref.tmp.i, align 8, !tbaa !15
  %cmp.i.i = icmp eq i64 %8, %9
  call void @llvm.lifetime.end.p0(i64 8, ptr nonnull %ref.tmp.i) #14
  br i1 %cmp.i.i, label %if.then.i, label %cond.end

if.then.i:                                        ; preds = %_ZN8QuantLib9SingletonINS_8SettingsESt17integral_constantIbLb0EEE8instanceEv.exit
  %call3.i = call i64 @_ZN8QuantLib4Date10todaysDateEv()
  br label %cond.end

cond.end:                                         ; preds = %if.then.i, %_ZN8QuantLib9SingletonINS_8SettingsESt17integral_constantIbLb0EEE8instanceEv.exit, %if.end
  %storemerge = phi i64 [ %2, %if.end ], [ %call3.i, %if.then.i ], [ %8, %_ZN8QuantLib9SingletonINS_8SettingsESt17integral_constantIbLb0EEE8instanceEv.exit ]
  call void @llvm.lifetime.end.p0(i64 8, ptr nonnull %ref.tmp3) #14
  %cmp.i3 = icmp sle i64 %call, %storemerge
  br label %cleanup

cleanup:                                          ; preds = %entry, %cond.end
  %retval.0 = phi i1 [ %cmp.i3, %cond.end ], [ false, %entry ]
  ret i1 %retval.0
}